; ModuleID = 'source-C-CXX/44/1220.c'
source_filename = "source-C-CXX/44/1220.c"
target datalayout = "e-m:e-p270:32:32-p271:32:32-p272:64:64-i64:64-f80:128-n8:16:32:64-S128"
target triple = "x86_64-pc-linux-gnu"

@.str = private unnamed_addr constant [3 x i8] c"%s\00", align 1
@.str.1 = private unnamed_addr constant [4 x i8] c"%d\0A\00", align 1

; Function Attrs: nofree nounwind sspstrong uwtable
define dso_local i32 @main() local_unnamed_addr #0 {
  %1 = alloca [50 x i8], align 16
  %2 = alloca [50 x i8], align 16
  %3 = getelementptr inbounds [50 x i8], [50 x i8]* %1, i64 0, i64 0
  call void @llvm.lifetime.start.p0i8(i64 50, i8* nonnull %3) #4
  %4 = getelementptr inbounds [50 x i8], [50 x i8]* %2, i64 0, i64 0
  call void @llvm.lifetime.start.p0i8(i64 50, i8* nonnull %4) #4
  %5 = call i32 (i8*, ...) @__isoc99_scanf(i8* getelementptr inbounds ([3 x i8], [3 x i8]* @.str, i64 0, i64 0), i8* nonnull %3)
  %6 = call i32 (i8*, ...) @__isoc99_scanf(i8* getelementptr inbounds ([3 x i8], [3 x i8]* @.str, i64 0, i64 0), i8* nonnull %4)
  %7 = call i64 @strlen(i8* noundef nonnull %3) #5
  %8 = call i64 @strlen(i8* noundef nonnull %4) #5
  %9 = trunc i64 %8 to i32
  %10 = load i8, i8* %3, align 16
  %11 = icmp sgt i32 %9, 0
  br i1 %11, label %12, label %49

12:                                               ; preds = %0
  %13 = trunc i64 %7 to i32
  %14 = icmp sgt i32 %13, 0
  %15 = and i64 %8, 4294967295
  br i1 %14, label %16, label %37

16:                                               ; preds = %12
  %17 = and i64 %7, 4294967295
  br label %18

18:                                               ; preds = %16, %34
  %19 = phi i64 [ 0, %16 ], [ %35, %34 ]
  %20 = getelementptr inbounds [50 x i8], [50 x i8]* %2, i64 0, i64 %19
  %21 = load i8, i8* %20, align 1, !tbaa !5
  %22 = icmp eq i8 %10, %21
  br i1 %22, label %25, label %34

23:                                               ; preds = %25
  %24 = icmp eq i64 %33, %17
  br i1 %24, label %42, label %25, !llvm.loop !8

25:                                               ; preds = %18, %23
  %26 = phi i64 [ %33, %23 ], [ 0, %18 ]
  %27 = getelementptr inbounds [50 x i8], [50 x i8]* %1, i64 0, i64 %26
  %28 = load i8, i8* %27, align 1, !tbaa !5
  %29 = add nuw nsw i64 %26, %19
  %30 = getelementptr inbounds [50 x i8], [50 x i8]* %2, i64 0, i64 %29
  %31 = load i8, i8* %30, align 1, !tbaa !5
  %32 = icmp eq i8 %28, %31
  %33 = add nuw nsw i64 %26, 1
  br i1 %32, label %23, label %34

34:                                               ; preds = %25, %18
  %35 = add nuw nsw i64 %19, 1
  %36 = icmp eq i64 %35, %15
  br i1 %36, label %49, label %18, !llvm.loop !10

37:                                               ; preds = %12, %46
  %38 = phi i64 [ %47, %46 ], [ 0, %12 ]
  %39 = getelementptr inbounds [50 x i8], [50 x i8]* %2, i64 0, i64 %38
  %40 = load i8, i8* %39, align 1, !tbaa !5
  %41 = icmp eq i8 %10, %40
  br i1 %41, label %42, label %46

42:                                               ; preds = %37, %23
  %43 = phi i64 [ %19, %23 ], [ %38, %37 ]
  %44 = trunc i64 %43 to i32
  %45 = call i32 (i8*, ...) @printf(i8* nonnull dereferenceable(1) getelementptr inbounds ([4 x i8], [4 x i8]* @.str.1, i64 0, i64 0), i32 %44)
  br label %49

46:                                               ; preds = %37
  %47 = add nuw nsw i64 %38, 1
  %48 = icmp eq i64 %47, %15
  br i1 %48, label %49, label %37, !llvm.loop !10

49:                                               ; preds = %46, %34, %0, %42
  call void @llvm.lifetime.end.p0i8(i64 50, i8* nonnull %4) #4
  call void @llvm.lifetime.end.p0i8(i64 50, i8* nonnull %3) #4
  ret i32 0
}

; Function Attrs: argmemonly mustprogress nofree nosync nounwind willreturn
declare void @llvm.lifetime.start.p0i8(i64 immarg, i8* nocapture) #1

; Function Attrs: nofree nounwind
declare noundef i32 @__isoc99_scanf(i8* nocapture noundef readonly, ...) local_unnamed_addr #2

; Function Attrs: argmemonly mustprogress nofree nounwind readonly willreturn
declare i64 @strlen(i8* nocapture) local_unnamed_addr #3

; Function Attrs: nofree nounwind
declare noundef i32 @printf(i8* nocapture noundef readonly, ...) local_unnamed_addr #2

; Function Attrs: argmemonly mustprogress nofree nosync nounwind willreturn
declare void @llvm.lifetime.end.p0i8(i64 immarg, i8* nocapture) #1


!llvm.module.flags = !{!0, !1, !2, !3}
!llvm.ident = !{!4}

!0 = !{i32 1, !"wchar_size", i32 4}
!1 = !{i32 7, !"PIC Level", i32 2}
!2 = !{i32 7, !"PIE Level", i32 2}
!3 = !{i32 7, !"uwtable", i32 1}
!4 = !{!"clang version 13.0.0"}
!5 = !{!6, !6, i64 0}
!6 = !{!"omnipotent char", !7, i64 0}
!7 = !{!"Simple C/C++ TBAA"}
!8 = distinct !{!8, !9}
!9 = !{!"llvm.loop.mustprogress"}
!10 = distinct !{!10, !9}
